target datalayout = "e-m:e-p270:32:32-p271:32:32-p272:64:64-i64:64-i128:128-f80:128-n8:16:32:64-S128"
target triple = "x86_64-unknown-linux-gnu"

; Function Attrs: mustprogress nounwind uwtable
define linkonce_odr noundef ptr @_ZN7rocksdb22static_cast_with_checkINS_22ColumnFamilyHandleImplENS_18ColumnFamilyHandleEEEPT_PT0_(ptr noundef %x) #1 comdat {
entry:
  %x.addr = alloca ptr, align 8
  %ret = alloca ptr, align 8
  store ptr %x, ptr %x.addr, align 8
  %0 = load ptr, ptr %x.addr, align 8
  store ptr %0, ptr %ret, align 8
  %1 = load ptr, ptr %ret, align 8
  ret ptr %1
}

; Function Attrs: mustprogress uwtable
define noundef i32 @_ZN7rocksdb17GetColumnFamilyIDEPNS_18ColumnFamilyHandleE(ptr noundef %column_family) #0 {
entry:
  %column_family.addr = alloca ptr, align 8
  %column_family_id = alloca i32, align 4
  %cfh = alloca ptr, align 8
  store ptr %column_family, ptr %column_family.addr, align 8
  store i32 0, ptr %column_family_id, align 4
  %0 = load ptr, ptr %column_family.addr, align 8
  %cmp = icmp ne ptr %0, null
  br i1 %cmp, label %if.then, label %if.end

if.then:                                          ; preds = %entry
  %1 = load ptr, ptr %column_family.addr, align 8
  %call = call noundef ptr @_ZN7rocksdb22static_cast_with_checkINS_22ColumnFamilyHandleImplENS_18ColumnFamilyHandleEEEPT_PT0_(ptr noundef %1)
  store ptr %call, ptr %cfh, align 8
  %2 = load ptr, ptr %cfh, align 8
  %vtable = load ptr, ptr %2, align 8
  %vfn = getelementptr inbounds ptr, ptr %vtable, i64 3
  %3 = load ptr, ptr %vfn, align 8
  %call1 = call noundef i32 %3(ptr noundef nonnull align 8 dereferenceable(32) %2)
  store i32 %call1, ptr %column_family_id, align 4
  br label %if.end

if.end:                                           ; preds = %if.then, %entry
  %4 = load i32, ptr %column_family_id, align 4
  ret i32 %4
}