; Function Attrs: mustprogress uwtable
define noundef i32 @_ZN7rocksdb17GetColumnFamilyIDEPNS_18ColumnFamilyHandleE(ptr noundef %column_family) local_unnamed_addr #7 {
entry:
  %cmp.not = icmp eq ptr %column_family, null
  br i1 %cmp.not, label %if.end, label %if.then

if.then:                                          ; preds = %entry
  %vtable = load ptr, ptr %column_family, align 8
  %vfn = getelementptr inbounds i8, ptr %vtable, i64 24
  %0 = load ptr, ptr %vfn, align 8
  %call1 = tail call noundef i32 %0(ptr noundef nonnull align 8 dereferenceable(32) %column_family)
  br label %if.end

if.end:                                           ; preds = %if.then, %entry
  %column_family_id.0 = phi i32 [ %call1, %if.then ], [ 0, %entry ]
  ret i32 %column_family_id.0
}